target datalayout = "e-m:e-p270:32:32-p271:32:32-p272:64:64-i64:64-i128:128-f80:128-n8:16:32:64-S128"
target triple = "x86_64-pc-linux-gnu"

%"class.gmx::ISignaller" = type { ptr }
%"class.std::vector" = type { %"struct.std::_Vector_base" }
%"struct.std::_Vector_base" = type { %"struct.std::_Vector_base<std::function<void (long, double)>, std::allocator<std::function<void (long, double)>>>::_Vector_impl" }
%"struct.std::_Vector_base<std::function<void (long, double)>, std::allocator<std::function<void (long, double)>>>::_Vector_impl" = type { %"struct.std::_Vector_base<std::function<void (long, double)>, std::allocator<std::function<void (long, double)>>>::_Vector_impl_data" }
%"struct.std::_Vector_base<std::function<void (long, double)>, std::allocator<std::function<void (long, double)>>>::_Vector_impl_data" = type { ptr, ptr, ptr }
%"class.std::function" = type { %"class.std::_Function_base", ptr }
%"class.std::_Function_base" = type { %"union.std::_Any_data", ptr }
%"union.std::_Any_data" = type { %"union.std::_Nocopy_types" }
%"union.std::_Nocopy_types" = type { { i64, i64 } }
%"class.gmx::ILastStepSignallerClient" = type { ptr }
%"class.__gnu_cxx::__normal_iterator.8" = type { ptr }
%"class.gmx::TrajectorySignaller" = type <{ %"class.gmx::ISignaller", %"class.gmx::ILastStepSignallerClient", i32, i32, i32, i32, i32, i32, i32, i32, i32, [4 x i8], %"class.std::vector", %"class.std::vector", i64, i8, [7 x i8] }>

; Function Attrs: mustprogress nounwind uwtable
define linkonce_odr noundef zeroext i1 @_ZNKSt14_Function_base8_M_emptyEv(ptr noundef nonnull align 8 dereferenceable(24) %0) #1 comdat align 2 {
  %2 = alloca ptr, align 8
  store ptr %0, ptr %2, align 8
  %3 = load ptr, ptr %2, align 8
  %4 = getelementptr inbounds %"class.std::_Function_base", ptr %3, i32 0, i32 1
  %5 = load ptr, ptr %4, align 8
  %6 = icmp ne ptr %5, null
  %7 = xor i1 %6, true
  ret i1 %7
}

; Function Attrs: mustprogress nounwind uwtable
define linkonce_odr noundef nonnull align 8 dereferenceable(8) ptr @_ZNK9__gnu_cxx17__normal_iteratorIPSt8functionIFvldEESt6vectorIS3_SaIS3_EEE4baseEv(ptr noundef nonnull align 8 dereferenceable(8) %0) #1 comdat align 2 {
  %2 = alloca ptr, align 8
  store ptr %0, ptr %2, align 8
  %3 = load ptr, ptr %2, align 8
  %4 = getelementptr inbounds %"class.__gnu_cxx::__normal_iterator.8", ptr %3, i32 0, i32 0
  ret ptr %4
}

; Function Attrs: mustprogress nounwind uwtable
define linkonce_odr void @_ZN9__gnu_cxx17__normal_iteratorIPSt8functionIFvldEESt6vectorIS3_SaIS3_EEEC2ERKS4_(ptr noundef nonnull align 8 dereferenceable(8) %0, ptr noundef nonnull align 8 dereferenceable(8) %1) unnamed_addr #1 comdat align 2 {
  %3 = alloca ptr, align 8
  %4 = alloca ptr, align 8
  store ptr %0, ptr %3, align 8
  store ptr %1, ptr %4, align 8
  %5 = load ptr, ptr %3, align 8
  %6 = getelementptr inbounds %"class.__gnu_cxx::__normal_iterator.8", ptr %5, i32 0, i32 0
  %7 = load ptr, ptr %4, align 8
  %8 = load ptr, ptr %7, align 8
  store ptr %8, ptr %6, align 8
  ret void
}

; Function Attrs: mustprogress nounwind uwtable
define linkonce_odr noundef nonnull align 8 dereferenceable(8) ptr @_ZN9__gnu_cxx17__normal_iteratorIPSt8functionIFvldEESt6vectorIS3_SaIS3_EEEppEv(ptr noundef nonnull align 8 dereferenceable(8) %0) #1 comdat align 2 {
  %2 = alloca ptr, align 8
  store ptr %0, ptr %2, align 8
  %3 = load ptr, ptr %2, align 8
  %4 = getelementptr inbounds %"class.__gnu_cxx::__normal_iterator.8", ptr %3, i32 0, i32 0
  %5 = load ptr, ptr %4, align 8
  %6 = getelementptr inbounds %"class.std::function", ptr %5, i32 1
  store ptr %6, ptr %4, align 8
  ret ptr %3
}

; Function Attrs: mustprogress uwtable
define linkonce_odr void @_ZNKSt8functionIFvldEEclEld(ptr noundef nonnull align 8 dereferenceable(32) %0, i64 noundef %1, double noundef %2) #0 comdat align 2 {
  %4 = alloca ptr, align 8
  %5 = alloca i64, align 8
  %6 = alloca double, align 8
  store ptr %0, ptr %4, align 8
  store i64 %1, ptr %5, align 8
  store double %2, ptr %6, align 8
  %7 = load ptr, ptr %4, align 8
  %8 = call noundef zeroext i1 @_ZNKSt14_Function_base8_M_emptyEv(ptr noundef nonnull align 8 dereferenceable(24) %7)
  br i1 %8, label %9, label %10

9:                                                ; preds = %3
  call void @_ZSt25__throw_bad_function_callv() #13
  unreachable

10:                                               ; preds = %3
  %11 = getelementptr inbounds %"class.std::function", ptr %7, i32 0, i32 1
  %12 = load ptr, ptr %11, align 8
  %13 = getelementptr inbounds %"class.std::_Function_base", ptr %7, i32 0, i32 0
  call void %12(ptr noundef nonnull align 8 dereferenceable(16) %13, ptr noundef nonnull align 8 dereferenceable(8) %5, ptr noundef nonnull align 8 dereferenceable(8) %6)
  ret void
}

; Function Attrs: mustprogress nounwind uwtable
define linkonce_odr noundef nonnull align 8 dereferenceable(32) ptr @_ZNK9__gnu_cxx17__normal_iteratorIPSt8functionIFvldEESt6vectorIS3_SaIS3_EEEdeEv(ptr noundef nonnull align 8 dereferenceable(8) %0) #1 comdat align 2 {
  %2 = alloca ptr, align 8
  store ptr %0, ptr %2, align 8
  %3 = load ptr, ptr %2, align 8
  %4 = getelementptr inbounds %"class.__gnu_cxx::__normal_iterator.8", ptr %3, i32 0, i32 0
  %5 = load ptr, ptr %4, align 8
  ret ptr %5
}

; Function Attrs: mustprogress nounwind uwtable
define linkonce_odr noundef zeroext i1 @_ZN9__gnu_cxxneIPSt8functionIFvldEESt6vectorIS3_SaIS3_EEEEbRKNS_17__normal_iteratorIT_T0_EESD_(ptr noundef nonnull align 8 dereferenceable(8) %0, ptr noundef nonnull align 8 dereferenceable(8) %1) #1 comdat {
  %3 = alloca ptr, align 8
  %4 = alloca ptr, align 8
  store ptr %0, ptr %3, align 8
  store ptr %1, ptr %4, align 8
  %5 = load ptr, ptr %3, align 8
  %6 = call noundef nonnull align 8 dereferenceable(8) ptr @_ZNK9__gnu_cxx17__normal_iteratorIPSt8functionIFvldEESt6vectorIS3_SaIS3_EEE4baseEv(ptr noundef nonnull align 8 dereferenceable(8) %5) #10
  %7 = load ptr, ptr %6, align 8
  %8 = load ptr, ptr %4, align 8
  %9 = call noundef nonnull align 8 dereferenceable(8) ptr @_ZNK9__gnu_cxx17__normal_iteratorIPSt8functionIFvldEESt6vectorIS3_SaIS3_EEE4baseEv(ptr noundef nonnull align 8 dereferenceable(8) %8) #10
  %10 = load ptr, ptr %9, align 8
  %11 = icmp ne ptr %7, %10
  ret i1 %11
}

; Function Attrs: mustprogress nounwind uwtable
define linkonce_odr ptr @_ZNSt6vectorISt8functionIFvldEESaIS2_EE3endEv(ptr noundef nonnull align 8 dereferenceable(24) %0) #1 comdat align 2 {
  %2 = alloca %"class.__gnu_cxx::__normal_iterator.8", align 8
  %3 = alloca ptr, align 8
  store ptr %0, ptr %3, align 8
  %4 = load ptr, ptr %3, align 8
  %5 = getelementptr inbounds %"struct.std::_Vector_base", ptr %4, i32 0, i32 0
  %6 = getelementptr inbounds %"struct.std::_Vector_base<std::function<void (long, double)>, std::allocator<std::function<void (long, double)>>>::_Vector_impl_data", ptr %5, i32 0, i32 1
  call void @_ZN9__gnu_cxx17__normal_iteratorIPSt8functionIFvldEESt6vectorIS3_SaIS3_EEEC2ERKS4_(ptr noundef nonnull align 8 dereferenceable(8) %2, ptr noundef nonnull align 8 dereferenceable(8) %6) #10
  %7 = getelementptr inbounds %"class.__gnu_cxx::__normal_iterator.8", ptr %2, i32 0, i32 0
  %8 = load ptr, ptr %7, align 8
  ret ptr %8
}

; Function Attrs: mustprogress nounwind uwtable
define linkonce_odr ptr @_ZNSt6vectorISt8functionIFvldEESaIS2_EE5beginEv(ptr noundef nonnull align 8 dereferenceable(24) %0) #1 comdat align 2 {
  %2 = alloca %"class.__gnu_cxx::__normal_iterator.8", align 8
  %3 = alloca ptr, align 8
  store ptr %0, ptr %3, align 8
  %4 = load ptr, ptr %3, align 8
  %5 = getelementptr inbounds %"struct.std::_Vector_base", ptr %4, i32 0, i32 0
  %6 = getelementptr inbounds %"struct.std::_Vector_base<std::function<void (long, double)>, std::allocator<std::function<void (long, double)>>>::_Vector_impl_data", ptr %5, i32 0, i32 0
  call void @_ZN9__gnu_cxx17__normal_iteratorIPSt8functionIFvldEESt6vectorIS3_SaIS3_EEEC2ERKS4_(ptr noundef nonnull align 8 dereferenceable(8) %2, ptr noundef nonnull align 8 dereferenceable(8) %6) #10
  %7 = getelementptr inbounds %"class.__gnu_cxx::__normal_iterator.8", ptr %2, i32 0, i32 0
  %8 = load ptr, ptr %7, align 8
  ret ptr %8
}

; Function Attrs: mustprogress nounwind uwtable
define linkonce_odr noundef zeroext i1 @_Z11do_per_stepll(i64 noundef %0, i64 noundef %1) #1 comdat {
  %3 = alloca i1, align 1
  %4 = alloca i64, align 8
  %5 = alloca i64, align 8
  store i64 %0, ptr %4, align 8
  store i64 %1, ptr %5, align 8
  %6 = load i64, ptr %5, align 8
  %7 = icmp ne i64 %6, 0
  br i1 %7, label %8, label %13

8:                                                ; preds = %2
  %9 = load i64, ptr %4, align 8
  %10 = load i64, ptr %5, align 8
  %11 = srem i64 %9, %10
  %12 = icmp eq i64 %11, 0
  store i1 %12, ptr %3, align 1
  br label %14

13:                                               ; preds = %2
  store i1 false, ptr %3, align 1
  br label %14

14:                                               ; preds = %13, %8
  %15 = load i1, ptr %3, align 1
  ret i1 %15
}

; Function Attrs: mustprogress uwtable
define void @_ZN3gmx19TrajectorySignaller6signalEld(ptr noundef nonnull align 8 dereferenceable(120) %0, i64 noundef %1, double noundef %2) unnamed_addr #0 align 2 {
  %4 = alloca ptr, align 8
  %5 = alloca i64, align 8
  %6 = alloca double, align 8
  %7 = alloca ptr, align 8
  %8 = alloca %"class.__gnu_cxx::__normal_iterator.8", align 8
  %9 = alloca %"class.__gnu_cxx::__normal_iterator.8", align 8
  %10 = alloca ptr, align 8
  %11 = alloca ptr, align 8
  %12 = alloca %"class.__gnu_cxx::__normal_iterator.8", align 8
  %13 = alloca %"class.__gnu_cxx::__normal_iterator.8", align 8
  %14 = alloca ptr, align 8
  store ptr %0, ptr %4, align 8
  store i64 %1, ptr %5, align 8
  store double %2, ptr %6, align 8
  %15 = load ptr, ptr %4, align 8
  %16 = load i64, ptr %5, align 8
  %17 = getelementptr inbounds %"class.gmx::TrajectorySignaller", ptr %15, i32 0, i32 2
  %18 = load i32, ptr %17, align 8
  %19 = sext i32 %18 to i64
  %20 = call noundef zeroext i1 @_Z11do_per_stepll(i64 noundef %16, i64 noundef %19)
  br i1 %20, label %63, label %21

21:                                               ; preds = %3
  %22 = load i64, ptr %5, align 8
  %23 = getelementptr inbounds %"class.gmx::TrajectorySignaller", ptr %15, i32 0, i32 3
  %24 = load i32, ptr %23, align 4
  %25 = sext i32 %24 to i64
  %26 = call noundef zeroext i1 @_Z11do_per_stepll(i64 noundef %22, i64 noundef %25)
  br i1 %26, label %63, label %27

27:                                               ; preds = %21
  %28 = load i64, ptr %5, align 8
  %29 = getelementptr inbounds %"class.gmx::TrajectorySignaller", ptr %15, i32 0, i32 4
  %30 = load i32, ptr %29, align 8
  %31 = sext i32 %30 to i64
  %32 = call noundef zeroext i1 @_Z11do_per_stepll(i64 noundef %28, i64 noundef %31)
  br i1 %32, label %63, label %33

33:                                               ; preds = %27
  %34 = load i64, ptr %5, align 8
  %35 = getelementptr inbounds %"class.gmx::TrajectorySignaller", ptr %15, i32 0, i32 5
  %36 = load i32, ptr %35, align 4
  %37 = sext i32 %36 to i64
  %38 = call noundef zeroext i1 @_Z11do_per_stepll(i64 noundef %34, i64 noundef %37)
  br i1 %38, label %63, label %39

39:                                               ; preds = %33
  %40 = load i64, ptr %5, align 8
  %41 = getelementptr inbounds %"class.gmx::TrajectorySignaller", ptr %15, i32 0, i32 6
  %42 = load i32, ptr %41, align 8
  %43 = sext i32 %42 to i64
  %44 = call noundef zeroext i1 @_Z11do_per_stepll(i64 noundef %40, i64 noundef %43)
  br i1 %44, label %63, label %45

45:                                               ; preds = %39
  %46 = load i64, ptr %5, align 8
  %47 = getelementptr inbounds %"class.gmx::TrajectorySignaller", ptr %15, i32 0, i32 7
  %48 = load i32, ptr %47, align 4
  %49 = sext i32 %48 to i64
  %50 = call noundef zeroext i1 @_Z11do_per_stepll(i64 noundef %46, i64 noundef %49)
  br i1 %50, label %63, label %51

51:                                               ; preds = %45
  %52 = load i64, ptr %5, align 8
  %53 = getelementptr inbounds %"class.gmx::TrajectorySignaller", ptr %15, i32 0, i32 8
  %54 = load i32, ptr %53, align 8
  %55 = sext i32 %54 to i64
  %56 = call noundef zeroext i1 @_Z11do_per_stepll(i64 noundef %52, i64 noundef %55)
  br i1 %56, label %63, label %57

57:                                               ; preds = %51
  %58 = load i64, ptr %5, align 8
  %59 = getelementptr inbounds %"class.gmx::TrajectorySignaller", ptr %15, i32 0, i32 9
  %60 = load i32, ptr %59, align 4
  %61 = sext i32 %60 to i64
  %62 = call noundef zeroext i1 @_Z11do_per_stepll(i64 noundef %58, i64 noundef %61)
  br i1 %62, label %63, label %81

63:                                               ; preds = %57, %51, %45, %39, %33, %27, %21, %3
  %64 = getelementptr inbounds %"class.gmx::TrajectorySignaller", ptr %15, i32 0, i32 13
  store ptr %64, ptr %7, align 8
  %65 = load ptr, ptr %7, align 8
  %66 = call ptr @_ZNSt6vectorISt8functionIFvldEESaIS2_EE5beginEv(ptr noundef nonnull align 8 dereferenceable(24) %65) #10
  %67 = getelementptr inbounds %"class.__gnu_cxx::__normal_iterator.8", ptr %8, i32 0, i32 0
  store ptr %66, ptr %67, align 8
  %68 = load ptr, ptr %7, align 8
  %69 = call ptr @_ZNSt6vectorISt8functionIFvldEESaIS2_EE3endEv(ptr noundef nonnull align 8 dereferenceable(24) %68) #10
  %70 = getelementptr inbounds %"class.__gnu_cxx::__normal_iterator.8", ptr %9, i32 0, i32 0
  store ptr %69, ptr %70, align 8
  br label %71

71:                                               ; preds = %78, %63
  %72 = call noundef zeroext i1 @_ZN9__gnu_cxxneIPSt8functionIFvldEESt6vectorIS3_SaIS3_EEEEbRKNS_17__normal_iteratorIT_T0_EESD_(ptr noundef nonnull align 8 dereferenceable(8) %8, ptr noundef nonnull align 8 dereferenceable(8) %9) #10
  br i1 %72, label %73, label %80

73:                                               ; preds = %71
  %74 = call noundef nonnull align 8 dereferenceable(32) ptr @_ZNK9__gnu_cxx17__normal_iteratorIPSt8functionIFvldEESt6vectorIS3_SaIS3_EEEdeEv(ptr noundef nonnull align 8 dereferenceable(8) %8) #10
  store ptr %74, ptr %10, align 8
  %75 = load ptr, ptr %10, align 8
  %76 = load i64, ptr %5, align 8
  %77 = load double, ptr %6, align 8
  call void @_ZNKSt8functionIFvldEEclEld(ptr noundef nonnull align 8 dereferenceable(32) %75, i64 noundef %76, double noundef %77)
  br label %78

78:                                               ; preds = %73
  %79 = call noundef nonnull align 8 dereferenceable(8) ptr @_ZN9__gnu_cxx17__normal_iteratorIPSt8functionIFvldEESt6vectorIS3_SaIS3_EEEppEv(ptr noundef nonnull align 8 dereferenceable(8) %8) #10
  br label %71

80:                                               ; preds = %71
  br label %81

81:                                               ; preds = %80, %57
  %82 = load i64, ptr %5, align 8
  %83 = getelementptr inbounds %"class.gmx::TrajectorySignaller", ptr %15, i32 0, i32 10
  %84 = load i32, ptr %83, align 8
  %85 = sext i32 %84 to i64
  %86 = call noundef zeroext i1 @_Z11do_per_stepll(i64 noundef %82, i64 noundef %85)
  br i1 %86, label %92, label %87

87:                                               ; preds = %81
  %88 = load i64, ptr %5, align 8
  %89 = getelementptr inbounds %"class.gmx::TrajectorySignaller", ptr %15, i32 0, i32 14
  %90 = load i64, ptr %89, align 8
  %91 = icmp eq i64 %88, %90
  br i1 %91, label %92, label %110

92:                                               ; preds = %87, %81
  %93 = getelementptr inbounds %"class.gmx::TrajectorySignaller", ptr %15, i32 0, i32 12
  store ptr %93, ptr %11, align 8
  %94 = load ptr, ptr %11, align 8
  %95 = call ptr @_ZNSt6vectorISt8functionIFvldEESaIS2_EE5beginEv(ptr noundef nonnull align 8 dereferenceable(24) %94) #10
  %96 = getelementptr inbounds %"class.__gnu_cxx::__normal_iterator.8", ptr %12, i32 0, i32 0
  store ptr %95, ptr %96, align 8
  %97 = load ptr, ptr %11, align 8
  %98 = call ptr @_ZNSt6vectorISt8functionIFvldEESaIS2_EE3endEv(ptr noundef nonnull align 8 dereferenceable(24) %97) #10
  %99 = getelementptr inbounds %"class.__gnu_cxx::__normal_iterator.8", ptr %13, i32 0, i32 0
  store ptr %98, ptr %99, align 8
  br label %100

100:                                              ; preds = %107, %92
  %101 = call noundef zeroext i1 @_ZN9__gnu_cxxneIPSt8functionIFvldEESt6vectorIS3_SaIS3_EEEEbRKNS_17__normal_iteratorIT_T0_EESD_(ptr noundef nonnull align 8 dereferenceable(8) %12, ptr noundef nonnull align 8 dereferenceable(8) %13) #10
  br i1 %101, label %102, label %109

102:                                              ; preds = %100
  %103 = call noundef nonnull align 8 dereferenceable(32) ptr @_ZNK9__gnu_cxx17__normal_iteratorIPSt8functionIFvldEESt6vectorIS3_SaIS3_EEEdeEv(ptr noundef nonnull align 8 dereferenceable(8) %12) #10
  store ptr %103, ptr %14, align 8
  %104 = load ptr, ptr %14, align 8
  %105 = load i64, ptr %5, align 8
  %106 = load double, ptr %6, align 8
  call void @_ZNKSt8functionIFvldEEclEld(ptr noundef nonnull align 8 dereferenceable(32) %104, i64 noundef %105, double noundef %106)
  br label %107

107:                                              ; preds = %102
  %108 = call noundef nonnull align 8 dereferenceable(8) ptr @_ZN9__gnu_cxx17__normal_iteratorIPSt8functionIFvldEESt6vectorIS3_SaIS3_EEEppEv(ptr noundef nonnull align 8 dereferenceable(8) %12) #10
  br label %100

109:                                              ; preds = %100
  br label %110

110:                                              ; preds = %109, %87
  ret void
}