; Function Attrs: mustprogress uwtable
define void @_ZN3gmx19TrajectorySignaller6signalEld(ptr nocapture noundef nonnull readonly align 8 dereferenceable(120) %0, i64 noundef %1, double noundef %2) unnamed_addr #0 align 2 {
  %4 = alloca i64, align 8
  %5 = alloca double, align 8
  %6 = alloca i64, align 8
  %7 = alloca double, align 8
  %8 = getelementptr inbounds i8, ptr %0, i64 16
  %9 = load i32, ptr %8, align 8
  %.not.i = icmp eq i32 %9, 0
  br i1 %.not.i, label %_Z11do_per_stepll.exit.thread, label %_Z11do_per_stepll.exit

_Z11do_per_stepll.exit:                           ; preds = %3
  %10 = sext i32 %9 to i64
  %11 = srem i64 %1, %10
  %12 = icmp eq i64 %11, 0
  br i1 %12, label %48, label %_Z11do_per_stepll.exit.thread

_Z11do_per_stepll.exit.thread:                    ; preds = %3, %_Z11do_per_stepll.exit
  %13 = getelementptr inbounds i8, ptr %0, i64 20
  %14 = load i32, ptr %13, align 4
  %.not.i22 = icmp eq i32 %14, 0
  br i1 %.not.i22, label %_Z11do_per_stepll.exit24.thread, label %_Z11do_per_stepll.exit24

_Z11do_per_stepll.exit24:                         ; preds = %_Z11do_per_stepll.exit.thread
  %15 = sext i32 %14 to i64
  %16 = srem i64 %1, %15
  %17 = icmp eq i64 %16, 0
  br i1 %17, label %48, label %_Z11do_per_stepll.exit24.thread

_Z11do_per_stepll.exit24.thread:                  ; preds = %_Z11do_per_stepll.exit.thread, %_Z11do_per_stepll.exit24
  %18 = getelementptr inbounds i8, ptr %0, i64 24
  %19 = load i32, ptr %18, align 8
  %.not.i25 = icmp eq i32 %19, 0
  br i1 %.not.i25, label %_Z11do_per_stepll.exit27.thread, label %_Z11do_per_stepll.exit27

_Z11do_per_stepll.exit27:                         ; preds = %_Z11do_per_stepll.exit24.thread
  %20 = sext i32 %19 to i64
  %21 = srem i64 %1, %20
  %22 = icmp eq i64 %21, 0
  br i1 %22, label %48, label %_Z11do_per_stepll.exit27.thread

_Z11do_per_stepll.exit27.thread:                  ; preds = %_Z11do_per_stepll.exit24.thread, %_Z11do_per_stepll.exit27
  %23 = getelementptr inbounds i8, ptr %0, i64 28
  %24 = load i32, ptr %23, align 4
  %.not.i28 = icmp eq i32 %24, 0
  br i1 %.not.i28, label %_Z11do_per_stepll.exit30.thread, label %_Z11do_per_stepll.exit30

_Z11do_per_stepll.exit30:                         ; preds = %_Z11do_per_stepll.exit27.thread
  %25 = sext i32 %24 to i64
  %26 = srem i64 %1, %25
  %27 = icmp eq i64 %26, 0
  br i1 %27, label %48, label %_Z11do_per_stepll.exit30.thread

_Z11do_per_stepll.exit30.thread:                  ; preds = %_Z11do_per_stepll.exit27.thread, %_Z11do_per_stepll.exit30
  %28 = getelementptr inbounds i8, ptr %0, i64 32
  %29 = load i32, ptr %28, align 8
  %.not.i31 = icmp eq i32 %29, 0
  br i1 %.not.i31, label %_Z11do_per_stepll.exit33.thread, label %_Z11do_per_stepll.exit33

_Z11do_per_stepll.exit33:                         ; preds = %_Z11do_per_stepll.exit30.thread
  %30 = sext i32 %29 to i64
  %31 = srem i64 %1, %30
  %32 = icmp eq i64 %31, 0
  br i1 %32, label %48, label %_Z11do_per_stepll.exit33.thread

_Z11do_per_stepll.exit33.thread:                  ; preds = %_Z11do_per_stepll.exit30.thread, %_Z11do_per_stepll.exit33
  %33 = getelementptr inbounds i8, ptr %0, i64 36
  %34 = load i32, ptr %33, align 4
  %.not.i34 = icmp eq i32 %34, 0
  br i1 %.not.i34, label %_Z11do_per_stepll.exit36.thread, label %_Z11do_per_stepll.exit36

_Z11do_per_stepll.exit36:                         ; preds = %_Z11do_per_stepll.exit33.thread
  %35 = sext i32 %34 to i64
  %36 = srem i64 %1, %35
  %37 = icmp eq i64 %36, 0
  br i1 %37, label %48, label %_Z11do_per_stepll.exit36.thread

_Z11do_per_stepll.exit36.thread:                  ; preds = %_Z11do_per_stepll.exit33.thread, %_Z11do_per_stepll.exit36
  %38 = getelementptr inbounds i8, ptr %0, i64 40
  %39 = load i32, ptr %38, align 8
  %.not.i37 = icmp eq i32 %39, 0
  br i1 %.not.i37, label %_Z11do_per_stepll.exit39.thread, label %_Z11do_per_stepll.exit39

_Z11do_per_stepll.exit39:                         ; preds = %_Z11do_per_stepll.exit36.thread
  %40 = sext i32 %39 to i64
  %41 = srem i64 %1, %40
  %42 = icmp eq i64 %41, 0
  br i1 %42, label %48, label %_Z11do_per_stepll.exit39.thread

_Z11do_per_stepll.exit39.thread:                  ; preds = %_Z11do_per_stepll.exit36.thread, %_Z11do_per_stepll.exit39
  %43 = getelementptr inbounds i8, ptr %0, i64 44
  %44 = load i32, ptr %43, align 4
  %.not.i40 = icmp eq i32 %44, 0
  br i1 %.not.i40, label %_Z11do_per_stepll.exit42.thread, label %_Z11do_per_stepll.exit42

_Z11do_per_stepll.exit42:                         ; preds = %_Z11do_per_stepll.exit39.thread
  %45 = sext i32 %44 to i64
  %46 = srem i64 %1, %45
  %47 = icmp eq i64 %46, 0
  br i1 %47, label %48, label %_Z11do_per_stepll.exit42.thread

48:                                               ; preds = %_Z11do_per_stepll.exit42, %_Z11do_per_stepll.exit39, %_Z11do_per_stepll.exit36, %_Z11do_per_stepll.exit33, %_Z11do_per_stepll.exit30, %_Z11do_per_stepll.exit27, %_Z11do_per_stepll.exit24, %_Z11do_per_stepll.exit
  %49 = getelementptr inbounds i8, ptr %0, i64 80
  %50 = load ptr, ptr %49, align 8
  %51 = getelementptr inbounds i8, ptr %0, i64 88
  %52 = load ptr, ptr %51, align 8
  %.not64 = icmp eq ptr %50, %52
  br i1 %.not64, label %_Z11do_per_stepll.exit42.thread, label %.lr.ph

.lr.ph:                                           ; preds = %48, %_ZNKSt8functionIFvldEEclEld.exit
  %.sroa.052.065 = phi ptr [ %58, %_ZNKSt8functionIFvldEEclEld.exit ], [ %50, %48 ]
  call void @llvm.lifetime.start.p0(i64 8, ptr nonnull %6)
  call void @llvm.lifetime.start.p0(i64 8, ptr nonnull %7)
  store i64 %1, ptr %6, align 8
  store double %2, ptr %7, align 8
  %53 = getelementptr inbounds i8, ptr %.sroa.052.065, i64 16
  %54 = load ptr, ptr %53, align 8
  %.not.i.i = icmp eq ptr %54, null
  br i1 %.not.i.i, label %55, label %_ZNKSt8functionIFvldEEclEld.exit

55:                                               ; preds = %.lr.ph
  call void @_ZSt25__throw_bad_function_callv() #14
  unreachable

_ZNKSt8functionIFvldEEclEld.exit:                 ; preds = %.lr.ph
  %56 = getelementptr inbounds i8, ptr %.sroa.052.065, i64 24
  %57 = load ptr, ptr %56, align 8
  call void %57(ptr noundef nonnull align 8 dereferenceable(16) %.sroa.052.065, ptr noundef nonnull align 8 dereferenceable(8) %6, ptr noundef nonnull align 8 dereferenceable(8) %7)
  call void @llvm.lifetime.end.p0(i64 8, ptr nonnull %6)
  call void @llvm.lifetime.end.p0(i64 8, ptr nonnull %7)
  %58 = getelementptr inbounds i8, ptr %.sroa.052.065, i64 32
  %.not = icmp eq ptr %58, %52
  br i1 %.not, label %_Z11do_per_stepll.exit42.thread, label %.lr.ph

_Z11do_per_stepll.exit42.thread:                  ; preds = %_ZNKSt8functionIFvldEEclEld.exit, %48, %_Z11do_per_stepll.exit39.thread, %_Z11do_per_stepll.exit42
  %59 = getelementptr inbounds i8, ptr %0, i64 48
  %60 = load i32, ptr %59, align 8
  %.not.i43 = icmp eq i32 %60, 0
  br i1 %.not.i43, label %_Z11do_per_stepll.exit45, label %61

61:                                               ; preds = %_Z11do_per_stepll.exit42.thread
  %62 = sext i32 %60 to i64
  %63 = srem i64 %1, %62
  %64 = icmp eq i64 %63, 0
  br label %_Z11do_per_stepll.exit45

_Z11do_per_stepll.exit45:                         ; preds = %_Z11do_per_stepll.exit42.thread, %61
  %.0.i44 = phi i1 [ %64, %61 ], [ false, %_Z11do_per_stepll.exit42.thread ]
  %65 = getelementptr inbounds i8, ptr %0, i64 104
  %66 = load i64, ptr %65, align 8
  %67 = icmp eq i64 %66, %1
  %or.cond = select i1 %.0.i44, i1 true, i1 %67
  br i1 %or.cond, label %68, label %.loopexit

68:                                               ; preds = %_Z11do_per_stepll.exit45
  %69 = getelementptr inbounds i8, ptr %0, i64 56
  %70 = load ptr, ptr %69, align 8
  %71 = getelementptr inbounds i8, ptr %0, i64 64
  %72 = load ptr, ptr %71, align 8
  %.not6366 = icmp eq ptr %70, %72
  br i1 %.not6366, label %.loopexit, label %.lr.ph68

.lr.ph68:                                         ; preds = %68, %_ZNKSt8functionIFvldEEclEld.exit47
  %.sroa.048.067 = phi ptr [ %78, %_ZNKSt8functionIFvldEEclEld.exit47 ], [ %70, %68 ]
  call void @llvm.lifetime.start.p0(i64 8, ptr nonnull %4)
  call void @llvm.lifetime.start.p0(i64 8, ptr nonnull %5)
  store i64 %1, ptr %4, align 8
  store double %2, ptr %5, align 8
  %73 = getelementptr inbounds i8, ptr %.sroa.048.067, i64 16
  %74 = load ptr, ptr %73, align 8
  %.not.i.i46 = icmp eq ptr %74, null
  br i1 %.not.i.i46, label %75, label %_ZNKSt8functionIFvldEEclEld.exit47

75:                                               ; preds = %.lr.ph68
  call void @_ZSt25__throw_bad_function_callv() #14
  unreachable

_ZNKSt8functionIFvldEEclEld.exit47:               ; preds = %.lr.ph68
  %76 = getelementptr inbounds i8, ptr %.sroa.048.067, i64 24
  %77 = load ptr, ptr %76, align 8
  call void %77(ptr noundef nonnull align 8 dereferenceable(16) %.sroa.048.067, ptr noundef nonnull align 8 dereferenceable(8) %4, ptr noundef nonnull align 8 dereferenceable(8) %5)
  call void @llvm.lifetime.end.p0(i64 8, ptr nonnull %4)
  call void @llvm.lifetime.end.p0(i64 8, ptr nonnull %5)
  %78 = getelementptr inbounds i8, ptr %.sroa.048.067, i64 32
  %.not63 = icmp eq ptr %78, %72
  br i1 %.not63, label %.loopexit, label %.lr.ph68

.loopexit:                                        ; preds = %_ZNKSt8functionIFvldEEclEld.exit47, %68, %_Z11do_per_stepll.exit45
  ret void
}